target datalayout = "e-m:e-p270:32:32-p271:32:32-p272:64:64-i64:64-i128:128-f80:128-n8:16:32:64-S128"
target triple = "x86_64-pc-linux-gnu"

%struct.eio_handle_components = type { i32, [2 x i32], %union.pthread_mutex_t, i64, i16, ptr, ptr }
%union.pthread_mutex_t = type { %struct.__pthread_mutex_s }
%struct.__pthread_mutex_s = type { i32, i32, i32, i32, i32, i16, i16, %struct.__pthread_internal_list }
%struct.__pthread_internal_list = type { ptr, ptr }

@.str.3 = private unnamed_addr constant [32 x i8] c"%s: pthread_mutex_destroy(): %m\00", align 1
@__func__.eio_handle_destroy = private unnamed_addr constant [19 x i8] c"eio_handle_destroy\00", align 1

; Function Attrs: nounwind uwtable
define dso_local void @eio_handle_destroy(ptr noundef %0) #0 {
  %2 = alloca ptr, align 8
  %3 = alloca i32, align 4
  store ptr %0, ptr %2, align 8
  %4 = load ptr, ptr %2, align 8
  %5 = getelementptr inbounds nuw %struct.eio_handle_components, ptr %4, i32 0, i32 1
  %6 = getelementptr inbounds [2 x i32], ptr %5, i64 0, i64 0
  %7 = load i32, ptr %6, align 4
  %8 = call i32 @close(i32 noundef %7)
  %9 = load ptr, ptr %2, align 8
  %10 = getelementptr inbounds nuw %struct.eio_handle_components, ptr %9, i32 0, i32 1
  %11 = getelementptr inbounds [2 x i32], ptr %10, i64 0, i64 1
  %12 = load i32, ptr %11, align 4
  %13 = call i32 @close(i32 noundef %12)
  br label %14

14:                                               ; preds = %1
  %15 = load ptr, ptr %2, align 8
  %16 = getelementptr inbounds nuw %struct.eio_handle_components, ptr %15, i32 0, i32 5
  %17 = load ptr, ptr %16, align 8
  %18 = icmp ne ptr %17, null
  br i1 %18, label %19, label %23

19:                                               ; preds = %14
  %20 = load ptr, ptr %2, align 8
  %21 = getelementptr inbounds nuw %struct.eio_handle_components, ptr %20, i32 0, i32 5
  %22 = load ptr, ptr %21, align 8
  call void @list_destroy(ptr noundef %22)
  br label %23

23:                                               ; preds = %19, %14
  %24 = load ptr, ptr %2, align 8
  %25 = getelementptr inbounds nuw %struct.eio_handle_components, ptr %24, i32 0, i32 5
  store ptr null, ptr %25, align 8
  br label %26

26:                                               ; preds = %23
  br label %27

27:                                               ; preds = %26
  %28 = load ptr, ptr %2, align 8
  %29 = getelementptr inbounds nuw %struct.eio_handle_components, ptr %28, i32 0, i32 6
  %30 = load ptr, ptr %29, align 8
  %31 = icmp ne ptr %30, null
  br i1 %31, label %32, label %36

32:                                               ; preds = %27
  %33 = load ptr, ptr %2, align 8
  %34 = getelementptr inbounds nuw %struct.eio_handle_components, ptr %33, i32 0, i32 6
  %35 = load ptr, ptr %34, align 8
  call void @list_destroy(ptr noundef %35)
  br label %36

36:                                               ; preds = %32, %27
  %37 = load ptr, ptr %2, align 8
  %38 = getelementptr inbounds nuw %struct.eio_handle_components, ptr %37, i32 0, i32 6
  store ptr null, ptr %38, align 8
  br label %39

39:                                               ; preds = %36
  br label %40

40:                                               ; preds = %39
  call void @llvm.lifetime.start.p0(i64 4, ptr %3) #7
  %41 = load ptr, ptr %2, align 8
  %42 = getelementptr inbounds nuw %struct.eio_handle_components, ptr %41, i32 0, i32 2
  %43 = call i32 @pthread_mutex_destroy(ptr noundef %42) #7
  store i32 %43, ptr %3, align 4
  %44 = load i32, ptr %3, align 4
  %45 = icmp ne i32 %44, 0
  br i1 %45, label %46, label %49

46:                                               ; preds = %40
  %47 = load i32, ptr %3, align 4
  %48 = call ptr @__errno_location() #8
  store i32 %47, ptr %48, align 4
  call void (ptr, ...) @fatal_abort(ptr noundef @.str.3, ptr noundef @__func__.eio_handle_destroy) #9
  unreachable

49:                                               ; preds = %40
  call void @llvm.lifetime.end.p0(i64 4, ptr %3) #7
  br label %50

50:                                               ; preds = %49
  %51 = load ptr, ptr %2, align 8
  %52 = getelementptr inbounds nuw %struct.eio_handle_components, ptr %51, i32 0, i32 0
  store i32 -925201, ptr %52, align 8
  call void @slurm_xfree(ptr noundef %2)
  ret void
}