; Function Attrs: nounwind uwtable
define dso_local void @eio_handle_destroy(ptr noundef %0) #0 {
  %2 = alloca ptr, align 8
  store ptr %0, ptr %2, align 8
  %3 = getelementptr inbounds nuw i8, ptr %0, i64 4
  %4 = load i32, ptr %3, align 4
  %5 = tail call i32 @close(i32 noundef %4) #10
  %6 = getelementptr inbounds nuw i8, ptr %0, i64 8
  %7 = load i32, ptr %6, align 4
  %8 = tail call i32 @close(i32 noundef %7) #10
  %9 = getelementptr inbounds nuw i8, ptr %0, i64 72
  %10 = load ptr, ptr %9, align 8
  %.not = icmp eq ptr %10, null
  br i1 %.not, label %12, label %11

11:                                               ; preds = %1
  tail call void @list_destroy(ptr noundef nonnull %10) #10
  br label %12

12:                                               ; preds = %11, %1
  store ptr null, ptr %9, align 8
  %13 = getelementptr inbounds nuw i8, ptr %0, i64 80
  %14 = load ptr, ptr %13, align 8
  %.not4 = icmp eq ptr %14, null
  br i1 %.not4, label %16, label %15

15:                                               ; preds = %12
  tail call void @list_destroy(ptr noundef nonnull %14) #10
  br label %16

16:                                               ; preds = %15, %12
  store ptr null, ptr %13, align 8
  %17 = getelementptr inbounds nuw i8, ptr %0, i64 16
  %18 = tail call i32 @pthread_mutex_destroy(ptr noundef nonnull %17) #10
  %.not5 = icmp eq i32 %18, 0
  br i1 %.not5, label %21, label %19

19:                                               ; preds = %16
  %20 = tail call ptr @__errno_location() #11
  store i32 %18, ptr %20, align 4
  tail call void (ptr, ...) @fatal_abort(ptr noundef nonnull @.str.3, ptr noundef nonnull @__func__.eio_handle_destroy) #12
  unreachable

21:                                               ; preds = %16
  store i32 -925201, ptr %0, align 8
  call void @slurm_xfree(ptr noundef nonnull %2) #10
  ret void
}